target datalayout = "e-m:e-p270:32:32-p271:32:32-p272:64:64-i64:64-i128:128-f80:128-n8:16:32:64-S128"
target triple = "x86_64-pc-linux-gnu"

%struct.Vec_Int_t_ = type { i32, i32, ptr }

; Function Attrs: nounwind uwtable
define internal void @Vec_IntFree(ptr noundef %0) #0 {
  %2 = alloca ptr, align 8
  store ptr %0, ptr %2, align 8
  %3 = load ptr, ptr %2, align 8
  %4 = getelementptr inbounds %struct.Vec_Int_t_, ptr %3, i32 0, i32 2
  %5 = load ptr, ptr %4, align 8
  %6 = icmp ne ptr %5, null
  br i1 %6, label %7, label %13

7:                                                ; preds = %1
  %8 = load ptr, ptr %2, align 8
  %9 = getelementptr inbounds %struct.Vec_Int_t_, ptr %8, i32 0, i32 2
  %10 = load ptr, ptr %9, align 8
  call void @free(ptr noundef %10) #10
  %11 = load ptr, ptr %2, align 8
  %12 = getelementptr inbounds %struct.Vec_Int_t_, ptr %11, i32 0, i32 2
  store ptr null, ptr %12, align 8
  br label %14

13:                                               ; preds = %1
  br label %14

14:                                               ; preds = %13, %7
  %15 = load ptr, ptr %2, align 8
  %16 = icmp ne ptr %15, null
  br i1 %16, label %17, label %19

17:                                               ; preds = %14
  %18 = load ptr, ptr %2, align 8
  call void @free(ptr noundef %18) #10
  store ptr null, ptr %2, align 8
  br label %20

19:                                               ; preds = %14
  br label %20

20:                                               ; preds = %19, %17
  ret void
}

; Function Attrs: nounwind uwtable
define i32 @Abc_NtkPhaseFrameNum(ptr noundef %0) #0 {
  %2 = alloca i32, align 4
  %3 = alloca ptr, align 8
  %4 = alloca ptr, align 8
  %5 = alloca ptr, align 8
  %6 = alloca i32, align 4
  store ptr %0, ptr %3, align 8
  %7 = load ptr, ptr %3, align 8
  %8 = call ptr @Abc_NtkToDar(ptr noundef %7, i32 noundef 0, i32 noundef 1)
  store ptr %8, ptr %5, align 8
  %9 = load ptr, ptr %5, align 8
  %10 = icmp eq ptr %9, null
  br i1 %10, label %11, label %12

11:                                               ; preds = %1
  store i32 1, ptr %2, align 4
  br label %21

12:                                               ; preds = %1
  %13 = load ptr, ptr %3, align 8
  %14 = call ptr @Abc_NtkGetLatchValues(ptr noundef %13)
  store ptr %14, ptr %4, align 8
  %15 = load ptr, ptr %5, align 8
  %16 = load ptr, ptr %4, align 8
  %17 = call i32 @Saig_ManPhaseFrameNum(ptr noundef %15, ptr noundef %16)
  store i32 %17, ptr %6, align 4
  %18 = load ptr, ptr %4, align 8
  call void @Vec_IntFree(ptr noundef %18)
  %19 = load ptr, ptr %5, align 8
  call void @Aig_ManStop(ptr noundef %19)
  %20 = load i32, ptr %6, align 4
  store i32 %20, ptr %2, align 4
  br label %21

21:                                               ; preds = %12, %11
  %22 = load i32, ptr %2, align 4
  ret i32 %22
}