; Function Attrs: nounwind uwtable
define i32 @Abc_NtkPhaseFrameNum(ptr noundef %0) local_unnamed_addr #1 {
  %2 = tail call ptr @Abc_NtkToDar(ptr noundef %0, i32 noundef 0, i32 noundef 1)
  %3 = icmp eq ptr %2, null
  br i1 %3, label %10, label %4

4:                                                ; preds = %1
  %5 = tail call ptr @Abc_NtkGetLatchValues(ptr noundef %0)
  %6 = tail call i32 @Saig_ManPhaseFrameNum(ptr noundef nonnull %2, ptr noundef %5) #19
  %7 = getelementptr inbounds nuw i8, ptr %5, i64 8
  %8 = load ptr, ptr %7, align 8
  %.not.i = icmp eq ptr %8, null
  br i1 %.not.i, label %Vec_IntFree.exit, label %9

9:                                                ; preds = %4
  tail call void @free(ptr noundef nonnull %8) #19
  br label %Vec_IntFree.exit

Vec_IntFree.exit:                                 ; preds = %4, %9
  tail call void @free(ptr noundef nonnull %5) #19
  tail call void @Aig_ManStop(ptr noundef nonnull %2) #19
  br label %10

10:                                               ; preds = %1, %Vec_IntFree.exit
  %.0 = phi i32 [ %6, %Vec_IntFree.exit ], [ 1, %1 ]
  ret i32 %.0
}